target datalayout = "e-m:e-p270:32:32-p271:32:32-p272:64:64-i64:64-i128:128-f80:128-n8:16:32:64-S128"
target triple = "x86_64-pc-linux-gnu"

; Function Attrs: mustprogress nounwind uwtable
define linkonce_odr hidden void @_ZN2cv12cpu_baseline13accW_general_IddEEvPKT_PT0_PKhiidi(ptr noundef %0, ptr noundef %1, ptr noundef %2, i32 noundef %3, i32 noundef %4, double noundef %5, i32 noundef %6) #2 comdat {
  %8 = alloca ptr, align 8
  %9 = alloca ptr, align 8
  %10 = alloca ptr, align 8
  %11 = alloca i32, align 4
  %12 = alloca i32, align 4
  %13 = alloca double, align 8
  %14 = alloca i32, align 4
  %15 = alloca double, align 8
  %16 = alloca double, align 8
  %17 = alloca i32, align 4
  %18 = alloca i32, align 4
  store ptr %0, ptr %8, align 8, !tbaa !29
  store ptr %1, ptr %9, align 8, !tbaa !29
  store ptr %2, ptr %10, align 8, !tbaa !3
  store i32 %3, ptr %11, align 4, !tbaa !10
  store i32 %4, ptr %12, align 4, !tbaa !10
  store double %5, ptr %13, align 8, !tbaa !31
  store i32 %6, ptr %14, align 4, !tbaa !10
  call void @llvm.lifetime.start.p0(i64 8, ptr %15) #4
  %19 = load double, ptr %13, align 8, !tbaa !31
  store double %19, ptr %15, align 8, !tbaa !31
  call void @llvm.lifetime.start.p0(i64 8, ptr %16) #4
  %20 = load double, ptr %15, align 8, !tbaa !31
  %21 = fsub double 1.000000e+00, %20
  store double %21, ptr %16, align 8, !tbaa !31
  call void @llvm.lifetime.start.p0(i64 4, ptr %17) #4
  %22 = load i32, ptr %14, align 4, !tbaa !10
  store i32 %22, ptr %17, align 4, !tbaa !10
  %23 = load ptr, ptr %10, align 8, !tbaa !3
  %24 = icmp ne ptr %23, null
  br i1 %24, label %56, label %25

25:                                               ; preds = %7
  %26 = load i32, ptr %12, align 4, !tbaa !10
  %27 = load i32, ptr %11, align 4, !tbaa !10
  %28 = mul nsw i32 %27, %26
  store i32 %28, ptr %11, align 4, !tbaa !10
  br label %29

29:                                               ; preds = %52, %25
  %30 = load i32, ptr %17, align 4, !tbaa !10
  %31 = load i32, ptr %11, align 4, !tbaa !10
  %32 = icmp slt i32 %30, %31
  br i1 %32, label %33, label %55

33:                                               ; preds = %29
  %34 = load ptr, ptr %8, align 8, !tbaa !29
  %35 = load i32, ptr %17, align 4, !tbaa !10
  %36 = sext i32 %35 to i64
  %37 = getelementptr inbounds double, ptr %34, i64 %36
  %38 = load double, ptr %37, align 8, !tbaa !31
  %39 = load double, ptr %15, align 8, !tbaa !31
  %40 = load ptr, ptr %9, align 8, !tbaa !29
  %41 = load i32, ptr %17, align 4, !tbaa !10
  %42 = sext i32 %41 to i64
  %43 = getelementptr inbounds double, ptr %40, i64 %42
  %44 = load double, ptr %43, align 8, !tbaa !31
  %45 = load double, ptr %16, align 8, !tbaa !31
  %46 = fmul double %44, %45
  %47 = call double @llvm.fmuladd.f64(double %38, double %39, double %46)
  %48 = load ptr, ptr %9, align 8, !tbaa !29
  %49 = load i32, ptr %17, align 4, !tbaa !10
  %50 = sext i32 %49 to i64
  %51 = getelementptr inbounds double, ptr %48, i64 %50
  store double %47, ptr %51, align 8, !tbaa !31
  br label %52

52:                                               ; preds = %33
  %53 = load i32, ptr %17, align 4, !tbaa !10
  %54 = add nsw i32 %53, 1
  store i32 %54, ptr %17, align 4, !tbaa !10
  br label %29, !llvm.loop !105

55:                                               ; preds = %29
  br label %122

56:                                               ; preds = %7
  %57 = load i32, ptr %17, align 4, !tbaa !10
  %58 = load i32, ptr %12, align 4, !tbaa !10
  %59 = mul nsw i32 %57, %58
  %60 = load ptr, ptr %8, align 8, !tbaa !29
  %61 = sext i32 %59 to i64
  %62 = getelementptr inbounds double, ptr %60, i64 %61
  store ptr %62, ptr %8, align 8, !tbaa !29
  %63 = load i32, ptr %17, align 4, !tbaa !10
  %64 = load i32, ptr %12, align 4, !tbaa !10
  %65 = mul nsw i32 %63, %64
  %66 = load ptr, ptr %9, align 8, !tbaa !29
  %67 = sext i32 %65 to i64
  %68 = getelementptr inbounds double, ptr %66, i64 %67
  store ptr %68, ptr %9, align 8, !tbaa !29
  br label %69

69:                                               ; preds = %110, %56
  %70 = load i32, ptr %17, align 4, !tbaa !10
  %71 = load i32, ptr %11, align 4, !tbaa !10
  %72 = icmp slt i32 %70, %71
  br i1 %72, label %73, label %121

73:                                               ; preds = %69
  %74 = load ptr, ptr %10, align 8, !tbaa !3
  %75 = load i32, ptr %17, align 4, !tbaa !10
  %76 = sext i32 %75 to i64
  %77 = getelementptr inbounds i8, ptr %74, i64 %76
  %78 = load i8, ptr %77, align 1, !tbaa !12
  %79 = icmp ne i8 %78, 0
  br i1 %79, label %80, label %109

80:                                               ; preds = %73
  call void @llvm.lifetime.start.p0(i64 4, ptr %18) #4
  store i32 0, ptr %18, align 4, !tbaa !10
  br label %81

81:                                               ; preds = %105, %80
  %82 = load i32, ptr %18, align 4, !tbaa !10
  %83 = load i32, ptr %12, align 4, !tbaa !10
  %84 = icmp slt i32 %82, %83
  br i1 %84, label %86, label %85

85:                                               ; preds = %81
  call void @llvm.lifetime.end.p0(i64 4, ptr %18) #4
  br label %108

86:                                               ; preds = %81
  %87 = load ptr, ptr %8, align 8, !tbaa !29
  %88 = load i32, ptr %18, align 4, !tbaa !10
  %89 = sext i32 %88 to i64
  %90 = getelementptr inbounds double, ptr %87, i64 %89
  %91 = load double, ptr %90, align 8, !tbaa !31
  %92 = load double, ptr %15, align 8, !tbaa !31
  %93 = load ptr, ptr %9, align 8, !tbaa !29
  %94 = load i32, ptr %18, align 4, !tbaa !10
  %95 = sext i32 %94 to i64
  %96 = getelementptr inbounds double, ptr %93, i64 %95
  %97 = load double, ptr %96, align 8, !tbaa !31
  %98 = load double, ptr %16, align 8, !tbaa !31
  %99 = fmul double %97, %98
  %100 = call double @llvm.fmuladd.f64(double %91, double %92, double %99)
  %101 = load ptr, ptr %9, align 8, !tbaa !29
  %102 = load i32, ptr %18, align 4, !tbaa !10
  %103 = sext i32 %102 to i64
  %104 = getelementptr inbounds double, ptr %101, i64 %103
  store double %100, ptr %104, align 8, !tbaa !31
  br label %105

105:                                              ; preds = %86
  %106 = load i32, ptr %18, align 4, !tbaa !10
  %107 = add nsw i32 %106, 1
  store i32 %107, ptr %18, align 4, !tbaa !10
  br label %81, !llvm.loop !106

108:                                              ; preds = %85
  br label %109

109:                                              ; preds = %108, %73
  br label %110

110:                                              ; preds = %109
  %111 = load i32, ptr %17, align 4, !tbaa !10
  %112 = add nsw i32 %111, 1
  store i32 %112, ptr %17, align 4, !tbaa !10
  %113 = load i32, ptr %12, align 4, !tbaa !10
  %114 = load ptr, ptr %8, align 8, !tbaa !29
  %115 = sext i32 %113 to i64
  %116 = getelementptr inbounds double, ptr %114, i64 %115
  store ptr %116, ptr %8, align 8, !tbaa !29
  %117 = load i32, ptr %12, align 4, !tbaa !10
  %118 = load ptr, ptr %9, align 8, !tbaa !29
  %119 = sext i32 %117 to i64
  %120 = getelementptr inbounds double, ptr %118, i64 %119
  store ptr %120, ptr %9, align 8, !tbaa !29
  br label %69, !llvm.loop !107

121:                                              ; preds = %69
  br label %122

122:                                              ; preds = %121, %55
  call void @llvm.lifetime.end.p0(i64 4, ptr %17) #4
  call void @llvm.lifetime.end.p0(i64 8, ptr %16) #4
  call void @llvm.lifetime.end.p0(i64 8, ptr %15) #4
  ret void
}

; Function Attrs: mustprogress uwtable
define hidden void @_ZN2cv12cpu_baseline10accW_simd_EPKdPdPKhiid(ptr noundef %0, ptr noundef %1, ptr noundef %2, i32 noundef %3, i32 noundef %4, double noundef %5) #0 {
  %7 = alloca ptr, align 8
  %8 = alloca ptr, align 8
  %9 = alloca ptr, align 8
  %10 = alloca i32, align 4
  %11 = alloca i32, align 4
  %12 = alloca double, align 8
  %13 = alloca i32, align 4
  store ptr %0, ptr %7, align 8, !tbaa !29
  store ptr %1, ptr %8, align 8, !tbaa !29
  store ptr %2, ptr %9, align 8, !tbaa !3
  store i32 %3, ptr %10, align 4, !tbaa !10
  store i32 %4, ptr %11, align 4, !tbaa !10
  store double %5, ptr %12, align 8, !tbaa !31
  call void @llvm.lifetime.start.p0(i64 4, ptr %13) #4
  store i32 0, ptr %13, align 4, !tbaa !10
  %14 = load ptr, ptr %7, align 8, !tbaa !29
  %15 = load ptr, ptr %8, align 8, !tbaa !29
  %16 = load ptr, ptr %9, align 8, !tbaa !3
  %17 = load i32, ptr %10, align 4, !tbaa !10
  %18 = load i32, ptr %11, align 4, !tbaa !10
  %19 = load double, ptr %12, align 8, !tbaa !31
  %20 = load i32, ptr %13, align 4, !tbaa !10
  call void @_ZN2cv12cpu_baseline13accW_general_IddEEvPKT_PT0_PKhiidi(ptr noundef %14, ptr noundef %15, ptr noundef %16, i32 noundef %17, i32 noundef %18, double noundef %19, i32 noundef %20)
  call void @llvm.lifetime.end.p0(i64 4, ptr %13) #4
  ret void
}

; Function Attrs: mustprogress uwtable
define hidden void @_ZN2cv8accW_64fEPKdPdPKhiid(ptr noundef %0, ptr noundef %1, ptr noundef %2, i32 noundef %3, i32 noundef %4, double noundef %5) #0 {
  %7 = alloca ptr, align 8
  %8 = alloca ptr, align 8
  %9 = alloca ptr, align 8
  %10 = alloca i32, align 4
  %11 = alloca i32, align 4
  %12 = alloca double, align 8
  store ptr %0, ptr %7, align 8, !tbaa !29
  store ptr %1, ptr %8, align 8, !tbaa !29
  store ptr %2, ptr %9, align 8, !tbaa !3
  store i32 %3, ptr %10, align 4, !tbaa !10
  store i32 %4, ptr %11, align 4, !tbaa !10
  store double %5, ptr %12, align 8, !tbaa !31
  %13 = load ptr, ptr %7, align 8, !tbaa !29
  %14 = load ptr, ptr %8, align 8, !tbaa !29
  %15 = load ptr, ptr %9, align 8, !tbaa !3
  %16 = load i32, ptr %10, align 4, !tbaa !10
  %17 = load i32, ptr %11, align 4, !tbaa !10
  %18 = load double, ptr %12, align 8, !tbaa !31
  call void @_ZN2cv12cpu_baseline10accW_simd_EPKdPdPKhiid(ptr noundef %13, ptr noundef %14, ptr noundef %15, i32 noundef %16, i32 noundef %17, double noundef %18)
  ret void
}