; Function Attrs: mustprogress nofree norecurse nosync nounwind memory(argmem: readwrite) uwtable
define hidden void @_ZN2cv8accW_64fEPKdPdPKhiid(ptr noundef readonly captures(none) %0, ptr noundef captures(none) %1, ptr noundef readonly %2, i32 noundef %3, i32 noundef %4, double noundef %5) local_unnamed_addr #0 {
  %7 = fsub double 1.000000e+00, %5
  %.not.i.i = icmp eq ptr %2, null
  br i1 %.not.i.i, label %8, label %17

8:                                                ; preds = %6
  %9 = mul nsw i32 %4, %3
  %10 = icmp sgt i32 %9, 0
  br i1 %10, label %.lr.ph.preheader.i.i, label %_ZN2cv12cpu_baseline10accW_simd_EPKdPdPKhiid.exit

.lr.ph.preheader.i.i:                             ; preds = %8
  %wide.trip.count66.i.i = zext nneg i32 %9 to i64
  br label %.lr.ph.i.i

.lr.ph.i.i:                                       ; preds = %.lr.ph.i.i, %.lr.ph.preheader.i.i
  %indvars.iv63.i.i = phi i64 [ 0, %.lr.ph.preheader.i.i ], [ %indvars.iv.next64.i.i, %.lr.ph.i.i ]
  %11 = getelementptr inbounds nuw double, ptr %0, i64 %indvars.iv63.i.i
  %12 = load double, ptr %11, align 8, !tbaa !20
  %13 = getelementptr inbounds nuw double, ptr %1, i64 %indvars.iv63.i.i
  %14 = load double, ptr %13, align 8, !tbaa !20
  %15 = fmul double %7, %14
  %16 = tail call double @llvm.fmuladd.f64(double %12, double %5, double %15)
  store double %16, ptr %13, align 8, !tbaa !20
  %indvars.iv.next64.i.i = add nuw nsw i64 %indvars.iv63.i.i, 1
  %exitcond67.not.i.i = icmp eq i64 %indvars.iv.next64.i.i, %wide.trip.count66.i.i
  br i1 %exitcond67.not.i.i, label %_ZN2cv12cpu_baseline10accW_simd_EPKdPdPKhiid.exit, label %.lr.ph.i.i, !llvm.loop !94

17:                                               ; preds = %6
  %18 = icmp sgt i32 %3, 0
  br i1 %18, label %.lr.ph53.i.i, label %_ZN2cv12cpu_baseline10accW_simd_EPKdPdPKhiid.exit

.lr.ph53.i.i:                                     ; preds = %17
  %19 = icmp sgt i32 %4, 0
  %20 = sext i32 %4 to i64
  br i1 %19, label %.lr.ph53.split.us.preheader.i.i, label %_ZN2cv12cpu_baseline10accW_simd_EPKdPdPKhiid.exit

.lr.ph53.split.us.preheader.i.i:                  ; preds = %.lr.ph53.i.i
  %wide.trip.count61.i.i = zext nneg i32 %3 to i64
  %wide.trip.count.i.i = zext nneg i32 %4 to i64
  br label %.lr.ph53.split.us.i.i

.lr.ph53.split.us.i.i:                            ; preds = %..loopexit47_crit_edge.us.i.i, %.lr.ph53.split.us.preheader.i.i
  %indvars.iv58.i.i = phi i64 [ 0, %.lr.ph53.split.us.preheader.i.i ], [ %indvars.iv.next59.i.i, %..loopexit47_crit_edge.us.i.i ]
  %.04351.us.i.i = phi ptr [ %0, %.lr.ph53.split.us.preheader.i.i ], [ %29, %..loopexit47_crit_edge.us.i.i ]
  %.04450.us.i.i = phi ptr [ %1, %.lr.ph53.split.us.preheader.i.i ], [ %30, %..loopexit47_crit_edge.us.i.i ]
  %21 = getelementptr inbounds nuw i8, ptr %2, i64 %indvars.iv58.i.i
  %22 = load i8, ptr %21, align 1, !tbaa !3
  %.not46.us.i.i = icmp eq i8 %22, 0
  br i1 %.not46.us.i.i, label %..loopexit47_crit_edge.us.i.i, label %.preheader.us.i.i

.preheader.us.i.i:                                ; preds = %.lr.ph53.split.us.i.i, %.preheader.us.i.i
  %indvars.iv.i.i = phi i64 [ %indvars.iv.next.i.i, %.preheader.us.i.i ], [ 0, %.lr.ph53.split.us.i.i ]
  %23 = getelementptr inbounds nuw double, ptr %.04351.us.i.i, i64 %indvars.iv.i.i
  %24 = load double, ptr %23, align 8, !tbaa !20
  %25 = getelementptr inbounds nuw double, ptr %.04450.us.i.i, i64 %indvars.iv.i.i
  %26 = load double, ptr %25, align 8, !tbaa !20
  %27 = fmul double %7, %26
  %28 = tail call double @llvm.fmuladd.f64(double %24, double %5, double %27)
  store double %28, ptr %25, align 8, !tbaa !20
  %indvars.iv.next.i.i = add nuw nsw i64 %indvars.iv.i.i, 1
  %exitcond.not.i.i = icmp eq i64 %indvars.iv.next.i.i, %wide.trip.count.i.i
  br i1 %exitcond.not.i.i, label %..loopexit47_crit_edge.us.i.i, label %.preheader.us.i.i, !llvm.loop !95

..loopexit47_crit_edge.us.i.i:                    ; preds = %.preheader.us.i.i, %.lr.ph53.split.us.i.i
  %indvars.iv.next59.i.i = add nuw nsw i64 %indvars.iv58.i.i, 1
  %29 = getelementptr inbounds nuw double, ptr %.04351.us.i.i, i64 %20
  %30 = getelementptr inbounds nuw double, ptr %.04450.us.i.i, i64 %20
  %exitcond62.not.i.i = icmp eq i64 %indvars.iv.next59.i.i, %wide.trip.count61.i.i
  br i1 %exitcond62.not.i.i, label %_ZN2cv12cpu_baseline10accW_simd_EPKdPdPKhiid.exit, label %.lr.ph53.split.us.i.i, !llvm.loop !96

_ZN2cv12cpu_baseline10accW_simd_EPKdPdPKhiid.exit: ; preds = %..loopexit47_crit_edge.us.i.i, %.lr.ph.i.i, %8, %17, %.lr.ph53.i.i
  ret void
}